; Function Attrs: nounwind uwtable
define { <2 x float>, float } @ma_sound_get_direction(ptr noundef %0) local_unnamed_addr #42 {
  %2 = icmp eq ptr %0, null
  br i1 %2, label %14, label %3

3:                                                ; preds = %1
  %4 = getelementptr inbounds nuw i8, ptr %0, i64 648
  %5 = getelementptr inbounds nuw i8, ptr %0, i64 660
  %6 = atomicrmw volatile xchg ptr %5, i32 1 acquire, align 4
  %7 = icmp eq i32 %6, 0
  br i1 %7, label %ma_spatializer_get_direction.exit, label %.preheader.i.i.i

.loopexit.i.i.i:                                  ; preds = %.lr.ph.i.i.i, %.preheader.i.i.i
  %8 = atomicrmw volatile xchg ptr %5, i32 1 acquire, align 4
  %9 = icmp eq i32 %8, 0
  br i1 %9, label %ma_spatializer_get_direction.exit, label %.preheader.i.i.i

.preheader.i.i.i:                                 ; preds = %3, %.loopexit.i.i.i
  %10 = load atomic volatile i32, ptr %5 monotonic, align 4
  %11 = icmp eq i32 %10, 1
  br i1 %11, label %.lr.ph.i.i.i, label %.loopexit.i.i.i

.lr.ph.i.i.i:                                     ; preds = %.preheader.i.i.i, %.lr.ph.i.i.i
  tail call void asm sideeffect "pause", "~{dirflag},~{fpsr},~{flags}"() #69, !srcloc !39
  %12 = load atomic volatile i32, ptr %5 monotonic, align 4
  %13 = icmp eq i32 %12, 1
  br i1 %13, label %.lr.ph.i.i.i, label %.loopexit.i.i.i, !llvm.loop !40

ma_spatializer_get_direction.exit:                ; preds = %.loopexit.i.i.i, %3
  %.sroa.03.0.copyload.i.i = load <2 x float>, ptr %4, align 4
  %.sroa.24.0..sroa_idx.i.i = getelementptr inbounds nuw i8, ptr %0, i64 656
  %.sroa.24.0.copyload.i.i = load float, ptr %.sroa.24.0..sroa_idx.i.i, align 4, !tbaa !339
  store atomic volatile i32 0, ptr %5 release, align 4
  %.fca.0.insert.i.i = insertvalue { <2 x float>, float } poison, <2 x float> %.sroa.03.0.copyload.i.i, 0
  %.fca.1.insert.i.i = insertvalue { <2 x float>, float } %.fca.0.insert.i.i, float %.sroa.24.0.copyload.i.i, 1
  br label %14

14:                                               ; preds = %1, %ma_spatializer_get_direction.exit
  %.pn = phi { <2 x float>, float } [ %.fca.1.insert.i.i, %ma_spatializer_get_direction.exit ], [ zeroinitializer, %1 ]
  ret { <2 x float>, float } %.pn
}